target datalayout = "e-m:e-p270:32:32-p271:32:32-p272:64:64-i64:64-i128:128-f80:128-n8:16:32:64-S128"
target triple = "x86_64-pc-linux-gnu"

@_ZL11signal_exit = internal global i8 0, align 1

; Function Attrs: mustprogress nounwind uwtable
define internal void @_ZL13handle_signali(i32 noundef %0) #6 {
  %2 = alloca i32, align 4
  store i32 %0, ptr %2, align 4, !tbaa !97
  %3 = load i32, ptr %2, align 4, !tbaa !97
  %4 = icmp eq i32 %3, 6
  br i1 %4, label %8, label %5

5:                                                ; preds = %1
  %6 = load volatile i8, ptr @_ZL11signal_exit, align 1, !tbaa !98, !range !99, !noundef !100
  %7 = trunc i8 %6 to i1
  br i1 %7, label %8, label %9

8:                                                ; preds = %5, %1
  call void @exit(i32 noundef -1) #24
  unreachable

9:                                                ; preds = %5
  store volatile i8 1, ptr @_ZL11signal_exit, align 1, !tbaa !98
  %10 = load i32, ptr %2, align 4, !tbaa !97
  %11 = call ptr @signal(i32 noundef %10, ptr noundef @_ZL13handle_signali) #3
  ret void
}