; Function Attrs: mustprogress nounwind uwtable
define internal void @_ZL13handle_signali(i32 noundef %0) #4 {
  %2 = icmp eq i32 %0, 6
  br i1 %2, label %6, label %3

3:                                                ; preds = %1
  %4 = load volatile i8, ptr @_ZL11signal_exit, align 1, !tbaa !91, !range !92, !noundef !93
  %5 = trunc nuw i8 %4 to i1
  br i1 %5, label %6, label %7

6:                                                ; preds = %3, %1
  tail call void @exit(i32 noundef -1) #39
  unreachable

7:                                                ; preds = %3
  store volatile i8 1, ptr @_ZL11signal_exit, align 1, !tbaa !91
  %8 = tail call ptr @signal(i32 noundef %0, ptr noundef nonnull @_ZL13handle_signali) #37
  ret void
}